; Function Attrs: nounwind uwtable
define internal void @dt_bh_init(ptr noundef initializes((56, 64), (324, 336), (344, 352), (368, 384)) %0) #0 {
  %2 = getelementptr inbounds nuw i8, ptr %0, i64 56
  store ptr null, ptr %2, align 8, !tbaa !160
  %3 = getelementptr inbounds nuw i8, ptr %0, i64 328
  store ptr null, ptr %3, align 8, !tbaa !146
  %4 = getelementptr inbounds nuw i8, ptr %0, i64 344
  store ptr null, ptr %4, align 8, !tbaa !196
  %5 = getelementptr inbounds nuw i8, ptr %0, i64 368
  store ptr null, ptr %5, align 8, !tbaa !198
  %6 = getelementptr inbounds nuw i8, ptr %0, i64 376
  store i32 0, ptr %6, align 8, !tbaa !216
  %7 = getelementptr inbounds nuw i8, ptr %0, i64 380
  store i32 1, ptr %7, align 4, !tbaa !123
  %8 = getelementptr inbounds nuw i8, ptr %0, i64 324
  store i32 1, ptr %8, align 4, !tbaa !195
  %9 = tail call i64 @gtk_widget_get_type() #20
  %10 = tail call ptr @g_type_check_instance_cast(ptr noundef %0, i64 noundef %9) #19
  %11 = load ptr, ptr getelementptr inbounds nuw (i8, ptr @darktable, i64 104), align 8, !tbaa !25
  %12 = getelementptr inbounds nuw i8, ptr %11, i64 5552
  %13 = load i32, ptr %12, align 8, !tbaa !90
  %14 = or i32 %13, 29444
  tail call void @gtk_widget_add_events(ptr noundef %10, i32 noundef %14) #19
  %15 = tail call ptr @g_type_check_instance_cast(ptr noundef %0, i64 noundef %9) #19
  tail call void @gtk_widget_set_can_focus(ptr noundef %15, i32 noundef 1) #19
  %16 = tail call ptr @g_type_check_instance_cast(ptr noundef %0, i64 noundef %9) #19
  tail call void @dt_gui_add_class(ptr noundef %16, ptr noundef nonnull @.str) #19
  ret void
}